; Function Attrs: mustprogress nounwind uwtable
define hidden noundef ptr @_ZN11ZForwarding11detach_pageEv(ptr noundef nonnull align 8 dereferenceable(184) %0) local_unnamed_addr #0 align 2 {
  %2 = getelementptr inbounds i8, ptr %0, i64 136
  %3 = load volatile i32, ptr %2, align 8
  tail call void asm sideeffect "", "~{memory},~{dirflag},~{fpsr},~{flags}"() #13, !srcloc !7
  %.not = icmp eq i32 %3, 0
  br i1 %.not, label %11, label %4

4:                                                ; preds = %1
  %5 = getelementptr inbounds i8, ptr %0, i64 48
  %6 = tail call i32 @pthread_mutex_lock(ptr noundef nonnull %5) #13
  %7 = load volatile i32, ptr %2, align 8
  tail call void asm sideeffect "", "~{memory},~{dirflag},~{fpsr},~{flags}"() #13, !srcloc !7
  %.not12 = icmp eq i32 %7, 0
  br i1 %.not12, label %_ZN7ZLockerI14ZConditionLockED2Ev.exit, label %.lr.ph

.lr.ph:                                           ; preds = %4, %.lr.ph
  %8 = tail call noundef i32 @_ZN15PlatformMonitor4waitEm(ptr noundef nonnull align 8 dereferenceable(88) %5, i64 noundef 0) #13
  %9 = load volatile i32, ptr %2, align 8
  tail call void asm sideeffect "", "~{memory},~{dirflag},~{fpsr},~{flags}"() #13, !srcloc !7
  %.not1 = icmp eq i32 %9, 0
  br i1 %.not1, label %_ZN7ZLockerI14ZConditionLockED2Ev.exit, label %.lr.ph, !llvm.loop !14

_ZN7ZLockerI14ZConditionLockED2Ev.exit:           ; preds = %.lr.ph, %4
  %10 = tail call i32 @pthread_mutex_unlock(ptr noundef nonnull %5) #13
  br label %11

11:                                               ; preds = %_ZN7ZLockerI14ZConditionLockED2Ev.exit, %1
  %12 = getelementptr inbounds i8, ptr %0, i64 32
  %13 = load ptr, ptr %12, align 8
  ret ptr %13
}